target datalayout = "e-m:e-p270:32:32-p271:32:32-p272:64:64-i64:64-i128:128-f80:128-n8:16:32:64-S128"
target triple = "x86_64-pc-linux-gnu"

%struct.backup_manifest_info = type { ptr, i32, ptr, i64, i8, i8, i8 }
%struct.StringInfoData = type { ptr, i32, i32, i32 }
%struct.pg_checksum_context = type { i32, %union.pg_checksum_raw_context }
%union.pg_checksum_raw_context = type { ptr }

@.str.1 = private unnamed_addr constant [18 x i8] c"backup_manifest.c\00", align 1
@.str.3 = private unnamed_addr constant [9 x i8] c"%s/%u/%s\00", align 1
@.str.4 = private unnamed_addr constant [10 x i8] c"pg_tblspc\00", align 1
@.str.5 = private unnamed_addr constant [3 x i8] c",\0A\00", align 1
@.str.6 = private unnamed_addr constant [11 x i8] c"{ \22Path\22: \00", align 1
@.str.7 = private unnamed_addr constant [3 x i8] c", \00", align 1
@.str.8 = private unnamed_addr constant [20 x i8] c"{ \22Encoded-Path\22: \22\00", align 1
@.str.9 = private unnamed_addr constant [4 x i8] c"\22, \00", align 1
@.str.10 = private unnamed_addr constant [14 x i8] c"\22Size\22: %zu, \00", align 1
@.str.11 = private unnamed_addr constant [19 x i8] c"\22Last-Modified\22: \22\00", align 1
@.str.12 = private unnamed_addr constant [21 x i8] c"%Y-%m-%d %H:%M:%S %Z\00", align 1
@.str.13 = private unnamed_addr constant [41 x i8] c"could not finalize checksum of file \22%s\22\00", align 1
@__func__.AddFileToBackupManifest = private unnamed_addr constant [24 x i8] c"AddFileToBackupManifest\00", align 1
@.str.14 = private unnamed_addr constant [44 x i8] c", \22Checksum-Algorithm\22: \22%s\22, \22Checksum\22: \22\00", align 1
@.str.15 = private unnamed_addr constant [3 x i8] c" }\00", align 1

; Function Attrs: inlinehint nounwind uwtable
define internal zeroext i1 @IsManifestEnabled(ptr noundef %0) #5 {
  %2 = alloca ptr, align 8
  store ptr %0, ptr %2, align 8
  %3 = load ptr, ptr %2, align 8
  %4 = getelementptr inbounds nuw %struct.backup_manifest_info, ptr %3, i32 0, i32 0
  %5 = load ptr, ptr %4, align 8
  %6 = icmp ne ptr %5, null
  ret i1 %6
}

; Function Attrs: nounwind uwtable
define dso_local void @AddFileToBackupManifest(ptr noundef %0, i32 noundef %1, ptr noundef %2, i64 noundef %3, i64 noundef %4, ptr noundef %5) #0 {
  %7 = alloca ptr, align 8
  %8 = alloca i32, align 4
  %9 = alloca ptr, align 8
  %10 = alloca i64, align 8
  %11 = alloca i64, align 8
  %12 = alloca ptr, align 8
  %13 = alloca [1024 x i8], align 16
  %14 = alloca i32, align 4
  %15 = alloca %struct.StringInfoData, align 8
  %16 = alloca i32, align 4
  %17 = alloca [64 x i8], align 16
  %18 = alloca i32, align 4
  store ptr %0, ptr %7, align 8
  store i32 %1, ptr %8, align 4
  store ptr %2, ptr %9, align 8
  store i64 %3, ptr %10, align 8
  store i64 %4, ptr %11, align 8
  store ptr %5, ptr %12, align 8
  call void @llvm.lifetime.start.p0(i64 1024, ptr %13) #8
  call void @llvm.lifetime.start.p0(i64 4, ptr %14) #8
  call void @llvm.lifetime.start.p0(i64 24, ptr %15) #8
  %19 = load ptr, ptr %7, align 8
  %20 = call zeroext i1 @IsManifestEnabled(ptr noundef %19)
  br i1 %20, label %22, label %21

21:                                               ; preds = %6
  store i32 1, ptr %16, align 4
  br label %138

22:                                               ; preds = %6
  %23 = load i32, ptr %8, align 4
  %24 = icmp ne i32 %23, 0
  br i1 %24, label %25, label %31

25:                                               ; preds = %22
  %26 = getelementptr inbounds [1024 x i8], ptr %13, i64 0, i64 0
  %27 = load i32, ptr %8, align 4
  %28 = load ptr, ptr %9, align 8
  %29 = call i32 (ptr, i64, ptr, ...) @pg_snprintf(ptr noundef %26, i64 noundef 1024, ptr noundef @.str.3, ptr noundef @.str.4, i32 noundef %27, ptr noundef %28)
  %30 = getelementptr inbounds [1024 x i8], ptr %13, i64 0, i64 0
  store ptr %30, ptr %9, align 8
  br label %31

31:                                               ; preds = %25, %22
  call void @initStringInfo(ptr noundef %15)
  %32 = load ptr, ptr %7, align 8
  %33 = getelementptr inbounds nuw %struct.backup_manifest_info, ptr %32, i32 0, i32 5
  %34 = load i8, ptr %33, align 1, !range !4, !noundef !5
  %35 = trunc i8 %34 to i1
  br i1 %35, label %36, label %39

36:                                               ; preds = %31
  call void @appendStringInfoChar(ptr noundef %15, i8 noundef signext 10)
  %37 = load ptr, ptr %7, align 8
  %38 = getelementptr inbounds nuw %struct.backup_manifest_info, ptr %37, i32 0, i32 5
  store i8 0, ptr %38, align 1
  br label %40

39:                                               ; preds = %31
  call void @appendStringInfoString(ptr noundef %15, ptr noundef @.str.5)
  br label %40

40:                                               ; preds = %39, %36
  %41 = load ptr, ptr %9, align 8
  %42 = call i64 @strlen(ptr noundef %41) #9
  %43 = trunc i64 %42 to i32
  store i32 %43, ptr %14, align 4
  %44 = load ptr, ptr %7, align 8
  %45 = getelementptr inbounds nuw %struct.backup_manifest_info, ptr %44, i32 0, i32 4
  %46 = load i8, ptr %45, align 8, !range !4, !noundef !5
  %47 = trunc i8 %46 to i1
  br i1 %47, label %55, label %48

48:                                               ; preds = %40
  %49 = load ptr, ptr %9, align 8
  %50 = load i32, ptr %14, align 4
  %51 = call zeroext i1 @pg_verify_mbstr(i32 noundef 6, ptr noundef %49, i32 noundef %50, i1 noundef zeroext true)
  br i1 %51, label %52, label %55

52:                                               ; preds = %48
  call void @appendStringInfoString(ptr noundef %15, ptr noundef @.str.6)
  %53 = load ptr, ptr %9, align 8
  %54 = load i32, ptr %14, align 4
  call void @escape_json_with_len(ptr noundef %15, ptr noundef %53, i32 noundef %54)
  call void @appendStringInfoString(ptr noundef %15, ptr noundef @.str.7)
  br label %73

55:                                               ; preds = %48, %40
  call void @appendStringInfoString(ptr noundef %15, ptr noundef @.str.8)
  %56 = load i32, ptr %14, align 4
  %57 = mul i32 2, %56
  call void @enlargeStringInfo(ptr noundef %15, i32 noundef %57)
  %58 = load ptr, ptr %9, align 8
  %59 = load i32, ptr %14, align 4
  %60 = sext i32 %59 to i64
  %61 = getelementptr inbounds nuw %struct.StringInfoData, ptr %15, i32 0, i32 0
  %62 = load ptr, ptr %61, align 8
  %63 = getelementptr inbounds nuw %struct.StringInfoData, ptr %15, i32 0, i32 1
  %64 = load i32, ptr %63, align 8
  %65 = sext i32 %64 to i64
  %66 = getelementptr inbounds i8, ptr %62, i64 %65
  %67 = call i64 @hex_encode(ptr noundef %58, i64 noundef %60, ptr noundef %66)
  %68 = getelementptr inbounds nuw %struct.StringInfoData, ptr %15, i32 0, i32 1
  %69 = load i32, ptr %68, align 8
  %70 = sext i32 %69 to i64
  %71 = add i64 %70, %67
  %72 = trunc i64 %71 to i32
  store i32 %72, ptr %68, align 8
  call void @appendStringInfoString(ptr noundef %15, ptr noundef @.str.9)
  br label %73

73:                                               ; preds = %55, %52
  %74 = load i64, ptr %10, align 8
  call void (ptr, ptr, ...) @appendStringInfo(ptr noundef %15, ptr noundef @.str.10, i64 noundef %74)
  call void @appendStringInfoString(ptr noundef %15, ptr noundef @.str.11)
  call void @enlargeStringInfo(ptr noundef %15, i32 noundef 128)
  %75 = getelementptr inbounds nuw %struct.StringInfoData, ptr %15, i32 0, i32 0
  %76 = load ptr, ptr %75, align 8
  %77 = getelementptr inbounds nuw %struct.StringInfoData, ptr %15, i32 0, i32 1
  %78 = load i32, ptr %77, align 8
  %79 = sext i32 %78 to i64
  %80 = getelementptr inbounds i8, ptr %76, i64 %79
  %81 = call ptr @pg_gmtime(ptr noundef %11)
  %82 = call i64 @pg_strftime(ptr noundef %80, i64 noundef 128, ptr noundef @.str.12, ptr noundef %81)
  %83 = getelementptr inbounds nuw %struct.StringInfoData, ptr %15, i32 0, i32 1
  %84 = load i32, ptr %83, align 8
  %85 = sext i32 %84 to i64
  %86 = add i64 %85, %82
  %87 = trunc i64 %86 to i32
  store i32 %87, ptr %83, align 8
  call void @appendStringInfoChar(ptr noundef %15, i8 noundef signext 34)
  %88 = load ptr, ptr %12, align 8
  %89 = getelementptr inbounds nuw %struct.pg_checksum_context, ptr %88, i32 0, i32 0
  %90 = load i32, ptr %89, align 8
  %91 = icmp ne i32 %90, 0
  br i1 %91, label %92, label %132

92:                                               ; preds = %73
  call void @llvm.lifetime.start.p0(i64 64, ptr %17) #8
  call void @llvm.lifetime.start.p0(i64 4, ptr %18) #8
  %93 = load ptr, ptr %12, align 8
  %94 = getelementptr inbounds [64 x i8], ptr %17, i64 0, i64 0
  %95 = call i32 @pg_checksum_final(ptr noundef %93, ptr noundef %94)
  store i32 %95, ptr %18, align 4
  %96 = load i32, ptr %18, align 4
  %97 = icmp slt i32 %96, 0
  br i1 %97, label %98, label %110

98:                                               ; preds = %92
  br label %99

99:                                               ; preds = %98
  br i1 true, label %100, label %102

100:                                              ; preds = %99
  %101 = call zeroext i1 @errstart_cold(i32 noundef 21, ptr noundef null) #7
  br i1 %101, label %104, label %107

102:                                              ; preds = %99
  %103 = call zeroext i1 @errstart(i32 noundef 21, ptr noundef null)
  br i1 %103, label %104, label %107

104:                                              ; preds = %102, %100
  %105 = load ptr, ptr %9, align 8
  %106 = call i32 (ptr, ...) @errmsg_internal(ptr noundef @.str.13, ptr noundef %105)
  call void @errfinish(ptr noundef @.str.1, i32 noundef 187, ptr noundef @__func__.AddFileToBackupManifest)
  br label %107

107:                                              ; preds = %104, %102, %100
  unreachable

108:                                              ; No predecessors!
  br label %109

109:                                              ; preds = %108
  br label %110

110:                                              ; preds = %109, %92
  %111 = load ptr, ptr %12, align 8
  %112 = getelementptr inbounds nuw %struct.pg_checksum_context, ptr %111, i32 0, i32 0
  %113 = load i32, ptr %112, align 8
  %114 = call ptr @pg_checksum_type_name(i32 noundef %113)
  call void (ptr, ptr, ...) @appendStringInfo(ptr noundef %15, ptr noundef @.str.14, ptr noundef %114)
  %115 = load i32, ptr %18, align 4
  %116 = mul i32 2, %115
  call void @enlargeStringInfo(ptr noundef %15, i32 noundef %116)
  %117 = getelementptr inbounds [64 x i8], ptr %17, i64 0, i64 0
  %118 = load i32, ptr %18, align 4
  %119 = sext i32 %118 to i64
  %120 = getelementptr inbounds nuw %struct.StringInfoData, ptr %15, i32 0, i32 0
  %121 = load ptr, ptr %120, align 8
  %122 = getelementptr inbounds nuw %struct.StringInfoData, ptr %15, i32 0, i32 1
  %123 = load i32, ptr %122, align 8
  %124 = sext i32 %123 to i64
  %125 = getelementptr inbounds i8, ptr %121, i64 %124
  %126 = call i64 @hex_encode(ptr noundef %117, i64 noundef %119, ptr noundef %125)
  %127 = getelementptr inbounds nuw %struct.StringInfoData, ptr %15, i32 0, i32 1
  %128 = load i32, ptr %127, align 8
  %129 = sext i32 %128 to i64
  %130 = add i64 %129, %126
  %131 = trunc i64 %130 to i32
  store i32 %131, ptr %127, align 8
  call void @appendStringInfoChar(ptr noundef %15, i8 noundef signext 34)
  call void @llvm.lifetime.end.p0(i64 4, ptr %18) #8
  call void @llvm.lifetime.end.p0(i64 64, ptr %17) #8
  br label %132

132:                                              ; preds = %110, %73
  call void @appendStringInfoString(ptr noundef %15, ptr noundef @.str.15)
  %133 = load ptr, ptr %7, align 8
  %134 = getelementptr inbounds nuw %struct.StringInfoData, ptr %15, i32 0, i32 0
  %135 = load ptr, ptr %134, align 8
  call void @AppendStringToManifest(ptr noundef %133, ptr noundef %135)
  %136 = getelementptr inbounds nuw %struct.StringInfoData, ptr %15, i32 0, i32 0
  %137 = load ptr, ptr %136, align 8
  call void @pfree(ptr noundef %137)
  store i32 0, ptr %16, align 4
  br label %138

138:                                              ; preds = %132, %21
  call void @llvm.lifetime.end.p0(i64 24, ptr %15) #8
  call void @llvm.lifetime.end.p0(i64 4, ptr %14) #8
  call void @llvm.lifetime.end.p0(i64 1024, ptr %13) #8
  %139 = load i32, ptr %16, align 4
  switch i32 %139, label %141 [
    i32 0, label %140
    i32 1, label %140
  ]

140:                                              ; preds = %138, %138
  ret void

141:                                              ; preds = %138
  unreachable
}