; Function Attrs: nounwind uwtable
define dso_local void @AddFileToBackupManifest(ptr noundef captures(none) %0, i32 noundef %1, ptr noundef %2, i64 noundef %3, i64 noundef %4, ptr noundef %5) local_unnamed_addr #0 {
  %7 = alloca i64, align 8
  %8 = alloca [1024 x i8], align 16
  %9 = alloca %struct.StringInfoData, align 8
  %10 = alloca [64 x i8], align 16
  store i64 %4, ptr %7, align 8
  call void @llvm.lifetime.start.p0(i64 1024, ptr nonnull %8) #8
  call void @llvm.lifetime.start.p0(i64 24, ptr nonnull %9) #8
  %.val = load ptr, ptr %0, align 8
  %.not26 = icmp eq ptr %.val, null
  br i1 %.not26, label %75, label %11

11:                                               ; preds = %6
  %.not = icmp eq i32 %1, 0
  br i1 %.not, label %14, label %12

12:                                               ; preds = %11
  %13 = call i32 (ptr, i64, ptr, ...) @pg_snprintf(ptr noundef nonnull %8, i64 noundef 1024, ptr noundef nonnull @.str.3, ptr noundef nonnull @.str.4, i32 noundef %1, ptr noundef %2) #8
  br label %14

14:                                               ; preds = %12, %11
  %.0 = phi ptr [ %8, %12 ], [ %2, %11 ]
  call void @initStringInfo(ptr noundef nonnull %9) #8
  %15 = getelementptr inbounds nuw i8, ptr %0, i64 33
  %16 = load i8, ptr %15, align 1, !range !4, !noundef !5
  %17 = trunc nuw i8 %16 to i1
  br i1 %17, label %18, label %19

18:                                               ; preds = %14
  call void @appendStringInfoChar(ptr noundef nonnull %9, i8 noundef signext 10) #8
  store i8 0, ptr %15, align 1
  br label %20

19:                                               ; preds = %14
  call void @appendStringInfoString(ptr noundef nonnull %9, ptr noundef nonnull @.str.5) #8
  br label %20

20:                                               ; preds = %19, %18
  %21 = call i64 @strlen(ptr noundef nonnull dereferenceable(1) %.0) #10
  %22 = trunc i64 %21 to i32
  %23 = getelementptr inbounds nuw i8, ptr %0, i64 32
  %24 = load i8, ptr %23, align 8, !range !4, !noundef !5
  %25 = trunc nuw i8 %24 to i1
  br i1 %25, label %29, label %26

26:                                               ; preds = %20
  %27 = call zeroext i1 @pg_verify_mbstr(i32 noundef 6, ptr noundef nonnull %.0, i32 noundef %22, i1 noundef zeroext true) #8
  br i1 %27, label %28, label %29

28:                                               ; preds = %26
  call void @appendStringInfoString(ptr noundef nonnull %9, ptr noundef nonnull @.str.6) #8
  call void @escape_json_with_len(ptr noundef nonnull %9, ptr noundef nonnull %.0, i32 noundef %22) #8
  br label %41

29:                                               ; preds = %26, %20
  call void @appendStringInfoString(ptr noundef nonnull %9, ptr noundef nonnull @.str.8) #8
  %30 = shl i32 %22, 1
  call void @enlargeStringInfo(ptr noundef nonnull %9, i32 noundef %30) #8
  %sext = shl i64 %21, 32
  %31 = ashr exact i64 %sext, 32
  %32 = load ptr, ptr %9, align 8
  %33 = getelementptr inbounds nuw i8, ptr %9, i64 8
  %34 = load i32, ptr %33, align 8
  %35 = sext i32 %34 to i64
  %36 = getelementptr inbounds i8, ptr %32, i64 %35
  %37 = call i64 @hex_encode(ptr noundef nonnull %.0, i64 noundef %31, ptr noundef %36) #8
  %38 = load i32, ptr %33, align 8
  %39 = trunc i64 %37 to i32
  %40 = add i32 %38, %39
  store i32 %40, ptr %33, align 8
  br label %41

41:                                               ; preds = %29, %28
  %.str.9.sink = phi ptr [ @.str.9, %29 ], [ @.str.7, %28 ]
  call void @appendStringInfoString(ptr noundef nonnull %9, ptr noundef nonnull %.str.9.sink) #8
  call void (ptr, ptr, ...) @appendStringInfo(ptr noundef nonnull %9, ptr noundef nonnull @.str.10, i64 noundef %3) #8
  call void @appendStringInfoString(ptr noundef nonnull %9, ptr noundef nonnull @.str.11) #8
  call void @enlargeStringInfo(ptr noundef nonnull %9, i32 noundef 128) #8
  %42 = load ptr, ptr %9, align 8
  %43 = getelementptr inbounds nuw i8, ptr %9, i64 8
  %44 = load i32, ptr %43, align 8
  %45 = sext i32 %44 to i64
  %46 = getelementptr inbounds i8, ptr %42, i64 %45
  %47 = call ptr @pg_gmtime(ptr noundef nonnull %7) #8
  %48 = call i64 @pg_strftime(ptr noundef %46, i64 noundef 128, ptr noundef nonnull @.str.12, ptr noundef %47) #8
  %49 = load i32, ptr %43, align 8
  %50 = trunc i64 %48 to i32
  %51 = add i32 %49, %50
  store i32 %51, ptr %43, align 8
  call void @appendStringInfoChar(ptr noundef nonnull %9, i8 noundef signext 34) #8
  %52 = load i32, ptr %5, align 8
  %.not25 = icmp eq i32 %52, 0
  br i1 %.not25, label %72, label %53

53:                                               ; preds = %41
  call void @llvm.lifetime.start.p0(i64 64, ptr nonnull %10) #8
  %54 = call i32 @pg_checksum_final(ptr noundef nonnull %5, ptr noundef nonnull %10) #8
  %55 = icmp slt i32 %54, 0
  br i1 %55, label %56, label %59

56:                                               ; preds = %53
  %57 = call zeroext i1 @errstart_cold(i32 noundef 21, ptr noundef null) #9
  call void @llvm.assume(i1 %57)
  %58 = call i32 (ptr, ...) @errmsg_internal(ptr noundef nonnull @.str.13, ptr noundef nonnull %.0) #8
  call void @errfinish(ptr noundef nonnull @.str.1, i32 noundef 187, ptr noundef nonnull @__func__.AddFileToBackupManifest) #8
  unreachable

59:                                               ; preds = %53
  %60 = load i32, ptr %5, align 8
  %61 = call ptr @pg_checksum_type_name(i32 noundef %60) #8
  call void (ptr, ptr, ...) @appendStringInfo(ptr noundef nonnull %9, ptr noundef nonnull @.str.14, ptr noundef %61) #8
  %62 = shl nuw i32 %54, 1
  call void @enlargeStringInfo(ptr noundef nonnull %9, i32 noundef %62) #8
  %63 = zext nneg i32 %54 to i64
  %64 = load ptr, ptr %9, align 8
  %65 = load i32, ptr %43, align 8
  %66 = sext i32 %65 to i64
  %67 = getelementptr inbounds i8, ptr %64, i64 %66
  %68 = call i64 @hex_encode(ptr noundef nonnull %10, i64 noundef %63, ptr noundef %67) #8
  %69 = load i32, ptr %43, align 8
  %70 = trunc i64 %68 to i32
  %71 = add i32 %69, %70
  store i32 %71, ptr %43, align 8
  call void @appendStringInfoChar(ptr noundef nonnull %9, i8 noundef signext 34) #8
  call void @llvm.lifetime.end.p0(i64 64, ptr nonnull %10) #8
  br label %72

72:                                               ; preds = %59, %41
  call void @appendStringInfoString(ptr noundef nonnull %9, ptr noundef nonnull @.str.15) #8
  %73 = load ptr, ptr %9, align 8
  call fastcc void @AppendStringToManifest(ptr noundef nonnull %0, ptr noundef %73)
  %74 = load ptr, ptr %9, align 8
  call void @pfree(ptr noundef %74) #8
  br label %75

75:                                               ; preds = %6, %72
  call void @llvm.lifetime.end.p0(i64 24, ptr nonnull %9) #8
  call void @llvm.lifetime.end.p0(i64 1024, ptr nonnull %8) #8
  ret void
}